target datalayout = "e-m:e-p270:32:32-p271:32:32-p272:64:64-i64:64-i128:128-f80:128-n8:16:32:64-S128"
target triple = "x86_64-pc-linux-gnu"

%"class.icu_77::FieldPositionIterator" = type <{ %"class.icu_77::UObject", ptr, i32, [4 x i8] }>
%"class.icu_77::UObject" = type { ptr }
%"class.icu_77::UVector32" = type { %"class.icu_77::UObject", i32, i32, i32, ptr }

; Function Attrs: inlinehint mustprogress nounwind uwtable
define linkonce_odr noundef i32 @_ZNK6icu_779UVector3210elementAtiEi(ptr noundef nonnull align 8 dereferenceable(32) %0, i32 noundef %1) #2 comdat align 2 {
  %3 = alloca ptr, align 8
  %4 = alloca i32, align 4
  store ptr %0, ptr %3, align 8, !tbaa !20
  store i32 %1, ptr %4, align 4, !tbaa !22
  %5 = load ptr, ptr %3, align 8
  %6 = load i32, ptr %4, align 4, !tbaa !22
  %7 = icmp sge i32 %6, 0
  br i1 %7, label %8, label %25

8:                                                ; preds = %2
  %9 = getelementptr inbounds nuw %"class.icu_77::UVector32", ptr %5, i32 0, i32 1
  %10 = load i32, ptr %9, align 8, !tbaa !25
  %11 = icmp sgt i32 %10, 0
  br i1 %11, label %12, label %25

12:                                               ; preds = %8
  %13 = getelementptr inbounds nuw %"class.icu_77::UVector32", ptr %5, i32 0, i32 1
  %14 = load i32, ptr %13, align 8, !tbaa !25
  %15 = load i32, ptr %4, align 4, !tbaa !22
  %16 = sub nsw i32 %14, %15
  %17 = icmp sgt i32 %16, 0
  br i1 %17, label %18, label %25

18:                                               ; preds = %12
  %19 = getelementptr inbounds nuw %"class.icu_77::UVector32", ptr %5, i32 0, i32 4
  %20 = load ptr, ptr %19, align 8, !tbaa !28
  %21 = load i32, ptr %4, align 4, !tbaa !22
  %22 = sext i32 %21 to i64
  %23 = getelementptr inbounds i32, ptr %20, i64 %22
  %24 = load i32, ptr %23, align 4, !tbaa !22
  br label %26

25:                                               ; preds = %12, %8, %2
  br label %26

26:                                               ; preds = %25, %18
  %27 = phi i32 [ %24, %18 ], [ 0, %25 ]
  ret i32 %27
}

; Function Attrs: inlinehint mustprogress nounwind uwtable
define linkonce_odr noundef i32 @_ZNK6icu_779UVector324sizeEv(ptr noundef nonnull align 8 dereferenceable(32) %0) #2 comdat align 2 {
  %2 = alloca ptr, align 8
  store ptr %0, ptr %2, align 8, !tbaa !20
  %3 = load ptr, ptr %2, align 8
  %4 = getelementptr inbounds nuw %"class.icu_77::UVector32", ptr %3, i32 0, i32 1
  %5 = load i32, ptr %4, align 8, !tbaa !25
  ret i32 %5
}

; Function Attrs: inlinehint mustprogress nounwind uwtable
define internal noundef signext i8 @_ZL9U_SUCCESS10UErrorCode(i32 noundef %0) #2 {
  %2 = alloca i32, align 4
  store i32 %0, ptr %2, align 4, !tbaa !18
  %3 = load i32, ptr %2, align 4, !tbaa !18
  %4 = icmp sle i32 %3, 0
  %5 = zext i1 %4 to i8
  ret i8 %5
}

; Function Attrs: mustprogress uwtable
define void @_ZN6icu_7721FieldPositionIterator7setDataEPNS_9UVector32ER10UErrorCode(ptr noundef nonnull align 8 dereferenceable(20) %0, ptr noundef %1, ptr noundef nonnull align 4 dereferenceable(4) %2) #3 align 2 {
  %4 = alloca ptr, align 8
  %5 = alloca ptr, align 8
  %6 = alloca ptr, align 8
  %7 = alloca i32, align 4
  %8 = alloca i32, align 4
  store ptr %0, ptr %4, align 8, !tbaa !3
  store ptr %1, ptr %5, align 8, !tbaa !20
  store ptr %2, ptr %6, align 8, !tbaa !21
  %9 = load ptr, ptr %4, align 8
  %10 = load ptr, ptr %6, align 8, !tbaa !21
  %11 = load i32, ptr %10, align 4, !tbaa !18
  %12 = call noundef signext i8 @_ZL9U_SUCCESS10UErrorCode(i32 noundef %11)
  %13 = icmp ne i8 %12, 0
  br i1 %13, label %14, label %63

14:                                               ; preds = %3
  %15 = load ptr, ptr %5, align 8, !tbaa !20
  %16 = icmp ne ptr %15, null
  br i1 %16, label %17, label %62

17:                                               ; preds = %14
  %18 = load ptr, ptr %5, align 8, !tbaa !20
  %19 = call noundef i32 @_ZNK6icu_779UVector324sizeEv(ptr noundef nonnull align 8 dereferenceable(32) %18)
  %20 = icmp eq i32 %19, 0
  br i1 %20, label %21, label %29

21:                                               ; preds = %17
  %22 = load ptr, ptr %5, align 8, !tbaa !20
  %23 = icmp eq ptr %22, null
  br i1 %23, label %28, label %24

24:                                               ; preds = %21
  %25 = load ptr, ptr %22, align 8, !tbaa !8
  %26 = getelementptr inbounds ptr, ptr %25, i64 1
  %27 = load ptr, ptr %26, align 8
  call void %27(ptr noundef nonnull align 8 dereferenceable(32) %22) #6
  br label %28

28:                                               ; preds = %24, %21
  store ptr null, ptr %5, align 8, !tbaa !20
  br label %61

29:                                               ; preds = %17
  %30 = load ptr, ptr %5, align 8, !tbaa !20
  %31 = call noundef i32 @_ZNK6icu_779UVector324sizeEv(ptr noundef nonnull align 8 dereferenceable(32) %30)
  %32 = srem i32 %31, 4
  %33 = icmp ne i32 %32, 0
  br i1 %33, label %34, label %36

34:                                               ; preds = %29
  %35 = load ptr, ptr %6, align 8, !tbaa !21
  store i32 1, ptr %35, align 4, !tbaa !18
  br label %60

36:                                               ; preds = %29
  call void @llvm.lifetime.start.p0(i64 4, ptr %7) #6
  store i32 2, ptr %7, align 4, !tbaa !22
  br label %37

37:                                               ; preds = %55, %36
  %38 = load i32, ptr %7, align 4, !tbaa !22
  %39 = load ptr, ptr %5, align 8, !tbaa !20
  %40 = call noundef i32 @_ZNK6icu_779UVector324sizeEv(ptr noundef nonnull align 8 dereferenceable(32) %39)
  %41 = icmp slt i32 %38, %40
  br i1 %41, label %43, label %42

42:                                               ; preds = %37
  store i32 2, ptr %8, align 4
  br label %58

43:                                               ; preds = %37
  %44 = load ptr, ptr %5, align 8, !tbaa !20
  %45 = load i32, ptr %7, align 4, !tbaa !22
  %46 = call noundef i32 @_ZNK6icu_779UVector3210elementAtiEi(ptr noundef nonnull align 8 dereferenceable(32) %44, i32 noundef %45)
  %47 = load ptr, ptr %5, align 8, !tbaa !20
  %48 = load i32, ptr %7, align 4, !tbaa !22
  %49 = add nsw i32 %48, 1
  %50 = call noundef i32 @_ZNK6icu_779UVector3210elementAtiEi(ptr noundef nonnull align 8 dereferenceable(32) %47, i32 noundef %49)
  %51 = icmp sge i32 %46, %50
  br i1 %51, label %52, label %54

52:                                               ; preds = %43
  %53 = load ptr, ptr %6, align 8, !tbaa !21
  store i32 1, ptr %53, align 4, !tbaa !18
  store i32 2, ptr %8, align 4
  br label %58

54:                                               ; preds = %43
  br label %55

55:                                               ; preds = %54
  %56 = load i32, ptr %7, align 4, !tbaa !22
  %57 = add nsw i32 %56, 4
  store i32 %57, ptr %7, align 4, !tbaa !22
  br label %37, !llvm.loop !23

58:                                               ; preds = %52, %42
  call void @llvm.lifetime.end.p0(i64 4, ptr %7) #6
  br label %59

59:                                               ; preds = %58
  br label %60

60:                                               ; preds = %59, %34
  br label %61

61:                                               ; preds = %60, %28
  br label %62

62:                                               ; preds = %61, %14
  br label %63

63:                                               ; preds = %62, %3
  %64 = load ptr, ptr %6, align 8, !tbaa !21
  %65 = load i32, ptr %64, align 4, !tbaa !18
  %66 = call noundef signext i8 @_ZL9U_SUCCESS10UErrorCode(i32 noundef %65)
  %67 = icmp ne i8 %66, 0
  br i1 %67, label %76, label %68

68:                                               ; preds = %63
  %69 = load ptr, ptr %5, align 8, !tbaa !20
  %70 = icmp eq ptr %69, null
  br i1 %70, label %75, label %71

71:                                               ; preds = %68
  %72 = load ptr, ptr %69, align 8, !tbaa !8
  %73 = getelementptr inbounds ptr, ptr %72, i64 1
  %74 = load ptr, ptr %73, align 8
  call void %74(ptr noundef nonnull align 8 dereferenceable(32) %69) #6
  br label %75

75:                                               ; preds = %71, %68
  br label %91

76:                                               ; preds = %63
  %77 = getelementptr inbounds nuw %"class.icu_77::FieldPositionIterator", ptr %9, i32 0, i32 1
  %78 = load ptr, ptr %77, align 8, !tbaa !10
  %79 = icmp eq ptr %78, null
  br i1 %79, label %84, label %80

80:                                               ; preds = %76
  %81 = load ptr, ptr %78, align 8, !tbaa !8
  %82 = getelementptr inbounds ptr, ptr %81, i64 1
  %83 = load ptr, ptr %82, align 8
  call void %83(ptr noundef nonnull align 8 dereferenceable(32) %78) #6
  br label %84

84:                                               ; preds = %80, %76
  %85 = load ptr, ptr %5, align 8, !tbaa !20
  %86 = getelementptr inbounds nuw %"class.icu_77::FieldPositionIterator", ptr %9, i32 0, i32 1
  store ptr %85, ptr %86, align 8, !tbaa !10
  %87 = load ptr, ptr %5, align 8, !tbaa !20
  %88 = icmp eq ptr %87, null
  %89 = select i1 %88, i32 -1, i32 0
  %90 = getelementptr inbounds nuw %"class.icu_77::FieldPositionIterator", ptr %9, i32 0, i32 2
  store i32 %89, ptr %90, align 8, !tbaa !15
  br label %91

91:                                               ; preds = %84, %75
  ret void
}